target datalayout = "e-m:e-p270:32:32-p271:32:32-p272:64:64-i64:64-i128:128-f80:128-n8:16:32:64-S128"
target triple = "x86_64-pc-linux-gnu"

%struct._zend_xml_globals = type { ptr }
%struct._XML_Memory_Handling_Suite = type { ptr, ptr, ptr }
%struct._zend_executor_globals = type { %struct._zval_struct, %struct._zval_struct, [32 x ptr], ptr, ptr, %struct._zend_array, %struct._zend_array, ptr, i32, i32, ptr, ptr, ptr, ptr, ptr, ptr, i64, ptr, ptr, i32, i32, i64, i32, i32, i32, i8, i8, %struct.zend_atomic_bool_s, %struct.zend_atomic_bool_s, ptr, i64, ptr, ptr, %struct._zend_array, %struct._zend_array, i32, i8, %struct._zval_struct, %struct._zval_struct, %struct._zend_stack, %struct._zend_stack, %struct._zend_stack, ptr, i32, i32, i64, ptr, ptr, ptr, %struct._zend_objects_store, ptr, ptr, ptr, [3 x %struct._zend_op], ptr, i8, i8, i64, i32, i32, ptr, [16 x %struct._HashTableIterator], ptr, %union._zend_function, %struct._zend_op, %struct._zend_array, i64, %struct.zend_get_gc_buffer, ptr, ptr, ptr, i64, i8, i32, ptr, ptr, i64, %struct._zend_call_stack, i64, i64, [6 x ptr] }
%struct.zend_atomic_bool_s = type { i8 }
%struct._zval_struct = type { %union._zend_value, %union.anon.9, %union.anon.12 }
%union._zend_value = type { i64 }
%union.anon.9 = type { i32 }
%union.anon.12 = type { i32 }
%struct._zend_stack = type { i32, i32, i32, ptr }
%struct._zend_objects_store = type { ptr, i32, i32, i32 }
%struct._HashTableIterator = type { ptr, i32, i32 }
%union._zend_function = type { %struct._zend_op_array }
%struct._zend_op_array = type { i8, [3 x i8], i32, ptr, ptr, ptr, i32, i32, ptr, ptr, ptr, ptr, i32, i32, i32, i32, ptr, ptr, ptr, ptr, ptr, i32, i32, ptr, ptr, ptr, i32, i32, i32, i32, ptr, ptr, [6 x ptr] }
%struct._zend_op = type { ptr, %union._znode_op, %union._znode_op, %union._znode_op, i32, i32, i8, i8, i8, i8 }
%union._znode_op = type { i32 }
%struct._zend_array = type { %struct._zend_refcounted_h, %union.anon.1, i32, %union.anon.2, i32, i32, i32, i32, i64, ptr }
%struct._zend_refcounted_h = type { i32, %union.anon.0 }
%union.anon.0 = type { i32 }
%union.anon.1 = type { i32 }
%union.anon.2 = type { ptr }
%struct.zend_get_gc_buffer = type { ptr, ptr, ptr }
%struct._zend_call_stack = type { ptr, i64 }
%struct._zend_fcall_info_cache = type { ptr, ptr, ptr, ptr, ptr }
%struct.xml_parser = type { ptr, ptr, %struct._zval_struct, ptr, %struct._zend_fcall_info_cache, %struct._zend_fcall_info_cache, %struct._zend_fcall_info_cache, %struct._zend_fcall_info_cache, %struct._zend_fcall_info_cache, %struct._zend_fcall_info_cache, %struct._zend_fcall_info_cache, %struct._zend_fcall_info_cache, %struct._zend_fcall_info_cache, %struct._zend_fcall_info_cache, %struct._zval_struct, %struct._zval_struct, i32, i32, i32, ptr, ptr, i8, i8, i8, i8, i8, ptr, %struct._zend_object }
%struct._zend_object = type { %struct._zend_refcounted_h, i32, ptr, ptr, ptr, [1 x %struct._zval_struct] }
%struct._zend_string = type { %struct._zend_refcounted_h, i64, i64, [1 x i8] }
%struct._zend_execute_data = type { ptr, ptr, ptr, ptr, %struct._zval_struct, ptr, ptr, ptr, ptr }

@xml_globals = hidden global %struct._zend_xml_globals zeroinitializer, align 8
@.str.3 = private unnamed_addr constant [11 x i8] c"ISO-8859-1\00", align 1
@.str.4 = private unnamed_addr constant [9 x i8] c"US-ASCII\00", align 1
@.str.5 = private unnamed_addr constant [6 x i8] c"UTF-8\00", align 1
@xml_parser_ce = internal global ptr null, align 8
@php_xml_mem_hdlrs = internal global %struct._XML_Memory_Handling_Suite zeroinitializer, align 8
@executor_globals = external global %struct._zend_executor_globals, align 8
@.str.119 = private unnamed_addr constant [5 x i8] c"|S!s\00", align 1
@.str.120 = private unnamed_addr constant [4 x i8] c"|S!\00", align 1
@.str.121 = private unnamed_addr constant [35 x i8] c"is not a supported source encoding\00", align 1
@.str.122 = private unnamed_addr constant [2 x i8] c":\00", align 1

; Function Attrs: nounwind uwtable
define internal ptr @xml_parser_from_obj(ptr noundef %0) #0 {
  %2 = alloca ptr, align 8
  store ptr %0, ptr %2, align 8
  %3 = load ptr, ptr %2, align 8
  %4 = getelementptr inbounds i8, ptr %3, i64 -520
  ret ptr %4
}

; Function Attrs: nounwind uwtable
define internal void @php_xml_parser_create_impl(ptr noundef %0, ptr noundef %1, i32 noundef %2) #0 {
  %4 = alloca ptr, align 8
  %5 = alloca ptr, align 8
  %6 = alloca i32, align 4
  %7 = alloca ptr, align 8
  %8 = alloca i32, align 4
  %9 = alloca ptr, align 8
  %10 = alloca ptr, align 8
  %11 = alloca i64, align 8
  %12 = alloca ptr, align 8
  %13 = alloca ptr, align 8
  %14 = alloca ptr, align 8
  %15 = alloca ptr, align 8
  %16 = alloca i32, align 4
  store ptr %0, ptr %4, align 8
  store ptr %1, ptr %5, align 8
  store i32 %2, ptr %6, align 4
  store i32 0, ptr %8, align 4
  store ptr null, ptr %9, align 8
  store ptr null, ptr %10, align 8
  store i64 0, ptr %11, align 8
  %17 = load ptr, ptr %4, align 8
  %18 = getelementptr inbounds %struct._zend_execute_data, ptr %17, i32 0, i32 4
  %19 = getelementptr inbounds %struct._zval_struct, ptr %18, i32 0, i32 2
  %20 = load i32, ptr %19, align 4
  %21 = load i32, ptr %6, align 4
  %22 = icmp ne i32 %21, 0
  %23 = select i1 %22, ptr @.str.119, ptr @.str.120
  %24 = call i32 (i32, ptr, ...) @zend_parse_parameters(i32 noundef %20, ptr noundef %23, ptr noundef %9, ptr noundef %10, ptr noundef %11)
  %25 = icmp eq i32 %24, -1
  br i1 %25, label %26, label %31

26:                                               ; preds = %3
  br label %27

27:                                               ; preds = %26
  %28 = load ptr, ptr getelementptr inbounds (%struct._zend_executor_globals, ptr @executor_globals, i32 0, i32 50), align 8
  %29 = icmp ne ptr %28, null
  call void @llvm.assume(i1 %29)
  br label %154

30:                                               ; No predecessors!
  br label %31

31:                                               ; preds = %30, %3
  %32 = load ptr, ptr %9, align 8
  %33 = icmp ne ptr %32, null
  br i1 %33, label %34, label %95

34:                                               ; preds = %31
  %35 = load ptr, ptr %9, align 8
  %36 = getelementptr inbounds %struct._zend_string, ptr %35, i32 0, i32 2
  %37 = load i64, ptr %36, align 8
  %38 = icmp eq i64 %37, 0
  br i1 %38, label %39, label %41

39:                                               ; preds = %34
  %40 = load ptr, ptr @xml_globals, align 8
  store ptr %40, ptr %12, align 8
  store i32 1, ptr %8, align 4
  br label %94

41:                                               ; preds = %34
  %42 = load ptr, ptr %9, align 8
  %43 = getelementptr inbounds %struct._zend_string, ptr %42, i32 0, i32 2
  %44 = load i64, ptr %43, align 8
  %45 = icmp eq i64 %44, 10
  br i1 %45, label %46, label %56

46:                                               ; preds = %41
  %47 = load ptr, ptr %9, align 8
  %48 = getelementptr inbounds %struct._zend_string, ptr %47, i32 0, i32 3
  %49 = getelementptr inbounds [1 x i8], ptr %48, i64 0, i64 0
  %50 = load ptr, ptr %9, align 8
  %51 = getelementptr inbounds %struct._zend_string, ptr %50, i32 0, i32 2
  %52 = load i64, ptr %51, align 8
  %53 = call i32 @zend_binary_strcasecmp(ptr noundef %49, i64 noundef %52, ptr noundef @.str.3, i64 noundef 10)
  %54 = icmp ne i32 %53, 0
  br i1 %54, label %56, label %55

55:                                               ; preds = %46
  store ptr @.str.3, ptr %12, align 8
  br label %93

56:                                               ; preds = %46, %41
  %57 = load ptr, ptr %9, align 8
  %58 = getelementptr inbounds %struct._zend_string, ptr %57, i32 0, i32 2
  %59 = load i64, ptr %58, align 8
  %60 = icmp eq i64 %59, 5
  br i1 %60, label %61, label %71

61:                                               ; preds = %56
  %62 = load ptr, ptr %9, align 8
  %63 = getelementptr inbounds %struct._zend_string, ptr %62, i32 0, i32 3
  %64 = getelementptr inbounds [1 x i8], ptr %63, i64 0, i64 0
  %65 = load ptr, ptr %9, align 8
  %66 = getelementptr inbounds %struct._zend_string, ptr %65, i32 0, i32 2
  %67 = load i64, ptr %66, align 8
  %68 = call i32 @zend_binary_strcasecmp(ptr noundef %64, i64 noundef %67, ptr noundef @.str.5, i64 noundef 5)
  %69 = icmp ne i32 %68, 0
  br i1 %69, label %71, label %70

70:                                               ; preds = %61
  store ptr @.str.5, ptr %12, align 8
  br label %92

71:                                               ; preds = %61, %56
  %72 = load ptr, ptr %9, align 8
  %73 = getelementptr inbounds %struct._zend_string, ptr %72, i32 0, i32 2
  %74 = load i64, ptr %73, align 8
  %75 = icmp eq i64 %74, 8
  br i1 %75, label %76, label %86

76:                                               ; preds = %71
  %77 = load ptr, ptr %9, align 8
  %78 = getelementptr inbounds %struct._zend_string, ptr %77, i32 0, i32 3
  %79 = getelementptr inbounds [1 x i8], ptr %78, i64 0, i64 0
  %80 = load ptr, ptr %9, align 8
  %81 = getelementptr inbounds %struct._zend_string, ptr %80, i32 0, i32 2
  %82 = load i64, ptr %81, align 8
  %83 = call i32 @zend_binary_strcasecmp(ptr noundef %79, i64 noundef %82, ptr noundef @.str.4, i64 noundef 8)
  %84 = icmp ne i32 %83, 0
  br i1 %84, label %86, label %85

85:                                               ; preds = %76
  store ptr @.str.4, ptr %12, align 8
  br label %91

86:                                               ; preds = %76, %71
  call void (i32, ptr, ...) @zend_argument_value_error(i32 noundef 1, ptr noundef @.str.121)
  br label %87

87:                                               ; preds = %86
  %88 = load ptr, ptr getelementptr inbounds (%struct._zend_executor_globals, ptr @executor_globals, i32 0, i32 50), align 8
  %89 = icmp ne ptr %88, null
  call void @llvm.assume(i1 %89)
  br label %154

90:                                               ; No predecessors!
  br label %91

91:                                               ; preds = %90, %85
  br label %92

92:                                               ; preds = %91, %70
  br label %93

93:                                               ; preds = %92, %55
  br label %94

94:                                               ; preds = %93, %39
  br label %97

95:                                               ; preds = %31
  %96 = load ptr, ptr @xml_globals, align 8
  store ptr %96, ptr %12, align 8
  br label %97

97:                                               ; preds = %95, %94
  %98 = load i32, ptr %6, align 4
  %99 = icmp ne i32 %98, 0
  br i1 %99, label %100, label %104

100:                                              ; preds = %97
  %101 = load ptr, ptr %10, align 8
  %102 = icmp eq ptr %101, null
  br i1 %102, label %103, label %104

103:                                              ; preds = %100
  store ptr @.str.122, ptr %10, align 8
  br label %104

104:                                              ; preds = %103, %100, %97
  %105 = load ptr, ptr %5, align 8
  %106 = load ptr, ptr @xml_parser_ce, align 8
  %107 = call i32 @object_init_ex(ptr noundef %105, ptr noundef %106)
  %108 = load ptr, ptr %5, align 8
  %109 = getelementptr inbounds %struct._zval_struct, ptr %108, i32 0, i32 0
  %110 = load ptr, ptr %109, align 8
  %111 = call ptr @xml_parser_from_obj(ptr noundef %110)
  store ptr %111, ptr %7, align 8
  %112 = load i32, ptr %8, align 4
  %113 = icmp ne i32 %112, 0
  br i1 %113, label %114, label %115

114:                                              ; preds = %104
  br label %117

115:                                              ; preds = %104
  %116 = load ptr, ptr %12, align 8
  br label %117

117:                                              ; preds = %115, %114
  %118 = phi ptr [ null, %114 ], [ %116, %115 ]
  %119 = load ptr, ptr %10, align 8
  %120 = call ptr @php_XML_ParserCreate_MM(ptr noundef %118, ptr noundef @php_xml_mem_hdlrs, ptr noundef %119)
  %121 = load ptr, ptr %7, align 8
  %122 = getelementptr inbounds %struct.xml_parser, ptr %121, i32 0, i32 0
  store ptr %120, ptr %122, align 8
  %123 = load ptr, ptr %12, align 8
  %124 = load ptr, ptr %7, align 8
  %125 = getelementptr inbounds %struct.xml_parser, ptr %124, i32 0, i32 1
  store ptr %123, ptr %125, align 8
  %126 = load ptr, ptr %7, align 8
  %127 = getelementptr inbounds %struct.xml_parser, ptr %126, i32 0, i32 25
  store i8 1, ptr %127, align 4
  %128 = load ptr, ptr %7, align 8
  %129 = getelementptr inbounds %struct.xml_parser, ptr %128, i32 0, i32 23
  store i8 0, ptr %129, align 2
  %130 = load ptr, ptr %7, align 8
  %131 = getelementptr inbounds %struct.xml_parser, ptr %130, i32 0, i32 24
  store i8 0, ptr %131, align 1
  %132 = load ptr, ptr %7, align 8
  %133 = getelementptr inbounds %struct.xml_parser, ptr %132, i32 0, i32 0
  %134 = load ptr, ptr %133, align 8
  %135 = load ptr, ptr %7, align 8
  call void @php_XML_SetUserData(ptr noundef %134, ptr noundef %135)
  br label %136

136:                                              ; preds = %117
  %137 = load ptr, ptr %7, align 8
  %138 = getelementptr inbounds %struct.xml_parser, ptr %137, i32 0, i32 2
  store ptr %138, ptr %13, align 8
  %139 = load ptr, ptr %5, align 8
  store ptr %139, ptr %14, align 8
  %140 = load ptr, ptr %14, align 8
  %141 = getelementptr inbounds %struct._zval_struct, ptr %140, i32 0, i32 0
  %142 = load ptr, ptr %141, align 8
  store ptr %142, ptr %15, align 8
  %143 = load ptr, ptr %14, align 8
  %144 = getelementptr inbounds %struct._zval_struct, ptr %143, i32 0, i32 1
  %145 = load i32, ptr %144, align 8
  store i32 %145, ptr %16, align 4
  br label %146

146:                                              ; preds = %136
  %147 = load ptr, ptr %15, align 8
  %148 = load ptr, ptr %13, align 8
  %149 = getelementptr inbounds %struct._zval_struct, ptr %148, i32 0, i32 0
  store ptr %147, ptr %149, align 8
  %150 = load i32, ptr %16, align 4
  %151 = load ptr, ptr %13, align 8
  %152 = getelementptr inbounds %struct._zval_struct, ptr %151, i32 0, i32 1
  store i32 %150, ptr %152, align 8
  br label %153

153:                                              ; preds = %146
  br label %154

154:                                              ; preds = %153, %87, %27
  ret void
}