; Function Attrs: nounwind uwtable
define internal fastcc void @php_xml_parser_create_impl(i32 %.44.val, ptr noundef %0, i32 noundef %1) unnamed_addr #0 {
  %3 = alloca ptr, align 8
  %4 = alloca ptr, align 8
  %5 = alloca i64, align 8
  store ptr null, ptr %3, align 8
  store ptr null, ptr %4, align 8
  store i64 0, ptr %5, align 8
  %6 = icmp ne i32 %1, 0
  %7 = select i1 %6, ptr @.str.119, ptr @.str.120
  %8 = call i32 (i32, ptr, ...) @zend_parse_parameters(i32 noundef %.44.val, ptr noundef nonnull %7, ptr noundef nonnull %3, ptr noundef nonnull %4, ptr noundef nonnull %5) #16
  %9 = icmp eq i32 %8, -1
  br i1 %9, label %10, label %13

10:                                               ; preds = %2
  %11 = load ptr, ptr getelementptr inbounds (%struct._zend_executor_globals, ptr @executor_globals, i64 0, i32 50), align 8
  %12 = icmp ne ptr %11, null
  call void @llvm.assume(i1 %12)
  br label %62

13:                                               ; preds = %2
  %14 = load ptr, ptr %3, align 8
  %.not = icmp eq ptr %14, null
  br i1 %.not, label %40, label %15

15:                                               ; preds = %13
  %16 = getelementptr inbounds i8, ptr %14, i64 16
  %17 = load i64, ptr %16, align 8
  switch i64 %17, label %23 [
    i64 0, label %18
    i64 10, label %20
  ]

18:                                               ; preds = %15
  %19 = load ptr, ptr @xml_globals, align 8
  br label %42

20:                                               ; preds = %15
  %21 = getelementptr inbounds i8, ptr %14, i64 24
  %22 = call i32 @zend_binary_strcasecmp(ptr noundef nonnull %21, i64 noundef 10, ptr noundef nonnull @.str.3, i64 noundef 10) #16
  %.not28 = icmp eq i32 %22, 0
  br i1 %.not28, label %42, label %._crit_edge

._crit_edge:                                      ; preds = %20
  %.pre = load ptr, ptr %3, align 8
  %.phi.trans.insert = getelementptr inbounds i8, ptr %.pre, i64 16
  %.pre1 = load i64, ptr %.phi.trans.insert, align 8
  br label %23

23:                                               ; preds = %._crit_edge, %15
  %24 = phi i64 [ %.pre1, %._crit_edge ], [ %17, %15 ]
  %25 = phi ptr [ %.pre, %._crit_edge ], [ %14, %15 ]
  %26 = icmp eq i64 %24, 5
  br i1 %26, label %27, label %30

27:                                               ; preds = %23
  %28 = getelementptr inbounds i8, ptr %25, i64 24
  %29 = call i32 @zend_binary_strcasecmp(ptr noundef nonnull %28, i64 noundef 5, ptr noundef nonnull @.str.5, i64 noundef 5) #16
  %.not29 = icmp eq i32 %29, 0
  br i1 %.not29, label %42, label %._crit_edge2

._crit_edge2:                                     ; preds = %27
  %.pre3 = load ptr, ptr %3, align 8
  %.phi.trans.insert4 = getelementptr inbounds i8, ptr %.pre3, i64 16
  %.pre5 = load i64, ptr %.phi.trans.insert4, align 8
  br label %30

30:                                               ; preds = %._crit_edge2, %23
  %31 = phi i64 [ %.pre5, %._crit_edge2 ], [ %24, %23 ]
  %32 = phi ptr [ %.pre3, %._crit_edge2 ], [ %25, %23 ]
  %33 = icmp eq i64 %31, 8
  br i1 %33, label %34, label %37

34:                                               ; preds = %30
  %35 = getelementptr inbounds i8, ptr %32, i64 24
  %36 = call i32 @zend_binary_strcasecmp(ptr noundef nonnull %35, i64 noundef 8, ptr noundef nonnull @.str.4, i64 noundef 8) #16
  %.not30 = icmp eq i32 %36, 0
  br i1 %.not30, label %42, label %37

37:                                               ; preds = %34, %30
  call void (i32, ptr, ...) @zend_argument_value_error(i32 noundef 1, ptr noundef nonnull @.str.121) #16
  %38 = load ptr, ptr getelementptr inbounds (%struct._zend_executor_globals, ptr @executor_globals, i64 0, i32 50), align 8
  %39 = icmp ne ptr %38, null
  call void @llvm.assume(i1 %39)
  br label %62

40:                                               ; preds = %13
  %41 = load ptr, ptr @xml_globals, align 8
  br label %42

42:                                               ; preds = %34, %27, %20, %18, %40
  %.023 = phi ptr [ %19, %18 ], [ %41, %40 ], [ @.str.3, %20 ], [ @.str.5, %27 ], [ @.str.4, %34 ]
  %.not31 = phi ptr [ null, %18 ], [ %41, %40 ], [ @.str.3, %20 ], [ @.str.5, %27 ], [ @.str.4, %34 ]
  %43 = load ptr, ptr %4, align 8
  %44 = icmp eq ptr %43, null
  %or.cond = select i1 %6, i1 %44, i1 false
  br i1 %or.cond, label %45, label %46

45:                                               ; preds = %42
  store ptr @.str.122, ptr %4, align 8
  br label %46

46:                                               ; preds = %45, %42
  %47 = load ptr, ptr @xml_parser_ce, align 8
  %48 = call i32 @object_init_ex(ptr noundef %0, ptr noundef %47) #16
  %49 = load ptr, ptr %0, align 8
  %50 = getelementptr inbounds i8, ptr %49, i64 -520
  %51 = load ptr, ptr %4, align 8
  %52 = call ptr @php_XML_ParserCreate_MM(ptr noundef %.not31, ptr noundef nonnull @php_xml_mem_hdlrs, ptr noundef %51) #16
  store ptr %52, ptr %50, align 8
  %53 = getelementptr inbounds i8, ptr %49, i64 -512
  store ptr %.023, ptr %53, align 8
  %54 = getelementptr inbounds i8, ptr %49, i64 -12
  store i8 1, ptr %54, align 4
  %55 = getelementptr inbounds i8, ptr %49, i64 -14
  store i8 0, ptr %55, align 2
  %56 = getelementptr inbounds i8, ptr %49, i64 -13
  store i8 0, ptr %56, align 1
  call void @php_XML_SetUserData(ptr noundef %52, ptr noundef nonnull %50) #16
  %57 = getelementptr inbounds i8, ptr %49, i64 -504
  %58 = load ptr, ptr %0, align 8
  %59 = getelementptr inbounds i8, ptr %0, i64 8
  %60 = load i32, ptr %59, align 8
  store ptr %58, ptr %57, align 8
  %61 = getelementptr inbounds i8, ptr %49, i64 -496
  store i32 %60, ptr %61, align 8
  br label %62

62:                                               ; preds = %46, %37, %10
  ret void
}